target datalayout = "e-m:e-p270:32:32-p271:32:32-p272:64:64-i64:64-i128:128-f80:128-n8:16:32:64-S128"
target triple = "x86_64-pc-linux-gnu"

%struct.ldbState = type { ptr, i32, i32, ptr, ptr, ptr, [64 x i32], i32, i32, i32, ptr, i32, i32, ptr, i64, i32 }

@ldb = dso_local global %struct.ldbState zeroinitializer, align 8
@.str.72 = private unnamed_addr constant [32 x i8] c"<out of range source code line>\00", align 1
@.str.74 = private unnamed_addr constant [4 x i8] c"->#\00", align 1
@.str.75 = private unnamed_addr constant [4 x i8] c"-> \00", align 1
@.str.76 = private unnamed_addr constant [4 x i8] c"  #\00", align 1
@.str.77 = private unnamed_addr constant [4 x i8] c"   \00", align 1
@.str.78 = private unnamed_addr constant [10 x i8] c"%s%-3d %s\00", align 1

; Function Attrs: nounwind uwtable
define dso_local void @ldbLog(ptr noundef %0) #0 {
  %2 = alloca ptr, align 8
  store ptr %0, ptr %2, align 8, !tbaa !16
  %3 = load ptr, ptr getelementptr inbounds nuw (%struct.ldbState, ptr @ldb, i32 0, i32 3), align 8, !tbaa !34
  %4 = load ptr, ptr %2, align 8, !tbaa !16
  %5 = call ptr @listAddNodeTail(ptr noundef %3, ptr noundef %4)
  ret void
}

; Function Attrs: nounwind uwtable
define dso_local i32 @ldbIsBreakpoint(i32 noundef %0) #0 {
  %2 = alloca i32, align 4
  %3 = alloca i32, align 4
  %4 = alloca i32, align 4
  %5 = alloca i32, align 4
  store i32 %0, ptr %3, align 4, !tbaa !19
  call void @llvm.lifetime.start.p0(i64 4, ptr %4) #14
  store i32 0, ptr %4, align 4, !tbaa !19
  br label %6

6:                                                ; preds = %19, %1
  %7 = load i32, ptr %4, align 4, !tbaa !19
  %8 = load i32, ptr getelementptr inbounds nuw (%struct.ldbState, ptr @ldb, i32 0, i32 7), align 8, !tbaa !153
  %9 = icmp slt i32 %7, %8
  br i1 %9, label %10, label %22

10:                                               ; preds = %6
  %11 = load i32, ptr %4, align 4, !tbaa !19
  %12 = sext i32 %11 to i64
  %13 = getelementptr inbounds [64 x i32], ptr getelementptr inbounds nuw (%struct.ldbState, ptr @ldb, i32 0, i32 6), i64 0, i64 %12
  %14 = load i32, ptr %13, align 4, !tbaa !19
  %15 = load i32, ptr %3, align 4, !tbaa !19
  %16 = icmp eq i32 %14, %15
  br i1 %16, label %17, label %18

17:                                               ; preds = %10
  store i32 1, ptr %2, align 4
  store i32 1, ptr %5, align 4
  br label %23

18:                                               ; preds = %10
  br label %19

19:                                               ; preds = %18
  %20 = load i32, ptr %4, align 4, !tbaa !19
  %21 = add nsw i32 %20, 1
  store i32 %21, ptr %4, align 4, !tbaa !19
  br label %6, !llvm.loop !169

22:                                               ; preds = %6
  store i32 0, ptr %2, align 4
  store i32 1, ptr %5, align 4
  br label %23

23:                                               ; preds = %22, %17
  call void @llvm.lifetime.end.p0(i64 4, ptr %4) #14
  %24 = load i32, ptr %2, align 4
  ret i32 %24
}

; Function Attrs: nounwind uwtable
define dso_local ptr @ldbGetSourceLine(i32 noundef %0) #0 {
  %2 = alloca ptr, align 8
  %3 = alloca i32, align 4
  %4 = alloca i32, align 4
  %5 = alloca i32, align 4
  store i32 %0, ptr %3, align 4, !tbaa !19
  call void @llvm.lifetime.start.p0(i64 4, ptr %4) #14
  %6 = load i32, ptr %3, align 4, !tbaa !19
  %7 = sub nsw i32 %6, 1
  store i32 %7, ptr %4, align 4, !tbaa !19
  %8 = load i32, ptr %4, align 4, !tbaa !19
  %9 = icmp slt i32 %8, 0
  br i1 %9, label %14, label %10

10:                                               ; preds = %1
  %11 = load i32, ptr %4, align 4, !tbaa !19
  %12 = load i32, ptr getelementptr inbounds nuw (%struct.ldbState, ptr @ldb, i32 0, i32 11), align 8, !tbaa !79
  %13 = icmp sge i32 %11, %12
  br i1 %13, label %14, label %15

14:                                               ; preds = %10, %1
  store ptr @.str.72, ptr %2, align 8
  store i32 1, ptr %5, align 4
  br label %21

15:                                               ; preds = %10
  %16 = load ptr, ptr getelementptr inbounds nuw (%struct.ldbState, ptr @ldb, i32 0, i32 10), align 8, !tbaa !78
  %17 = load i32, ptr %4, align 4, !tbaa !19
  %18 = sext i32 %17 to i64
  %19 = getelementptr inbounds ptr, ptr %16, i64 %18
  %20 = load ptr, ptr %19, align 8, !tbaa !16
  store ptr %20, ptr %2, align 8
  store i32 1, ptr %5, align 4
  br label %21

21:                                               ; preds = %15, %14
  call void @llvm.lifetime.end.p0(i64 4, ptr %4) #14
  %22 = load ptr, ptr %2, align 8
  ret ptr %22
}

; Function Attrs: nounwind uwtable
define dso_local void @ldbLogSourceLine(i32 noundef %0) #0 {
  %2 = alloca i32, align 4
  %3 = alloca ptr, align 8
  %4 = alloca ptr, align 8
  %5 = alloca i32, align 4
  %6 = alloca i32, align 4
  %7 = alloca ptr, align 8
  store i32 %0, ptr %2, align 4, !tbaa !19
  call void @llvm.lifetime.start.p0(i64 8, ptr %3) #14
  %8 = load i32, ptr %2, align 4, !tbaa !19
  %9 = call ptr @ldbGetSourceLine(i32 noundef %8)
  store ptr %9, ptr %3, align 8, !tbaa !16
  call void @llvm.lifetime.start.p0(i64 8, ptr %4) #14
  call void @llvm.lifetime.start.p0(i64 4, ptr %5) #14
  %10 = load i32, ptr %2, align 4, !tbaa !19
  %11 = call i32 @ldbIsBreakpoint(i32 noundef %10)
  store i32 %11, ptr %5, align 4, !tbaa !19
  call void @llvm.lifetime.start.p0(i64 4, ptr %6) #14
  %12 = load i32, ptr getelementptr inbounds nuw (%struct.ldbState, ptr @ldb, i32 0, i32 12), align 4, !tbaa !32
  %13 = load i32, ptr %2, align 4, !tbaa !19
  %14 = icmp eq i32 %12, %13
  %15 = zext i1 %14 to i32
  store i32 %15, ptr %6, align 4, !tbaa !19
  %16 = load i32, ptr %6, align 4, !tbaa !19
  %17 = icmp ne i32 %16, 0
  br i1 %17, label %18, label %22

18:                                               ; preds = %1
  %19 = load i32, ptr %5, align 4, !tbaa !19
  %20 = icmp ne i32 %19, 0
  br i1 %20, label %21, label %22

21:                                               ; preds = %18
  store ptr @.str.74, ptr %4, align 8, !tbaa !16
  br label %33

22:                                               ; preds = %18, %1
  %23 = load i32, ptr %6, align 4, !tbaa !19
  %24 = icmp ne i32 %23, 0
  br i1 %24, label %25, label %26

25:                                               ; preds = %22
  store ptr @.str.75, ptr %4, align 8, !tbaa !16
  br label %32

26:                                               ; preds = %22
  %27 = load i32, ptr %5, align 4, !tbaa !19
  %28 = icmp ne i32 %27, 0
  br i1 %28, label %29, label %30

29:                                               ; preds = %26
  store ptr @.str.76, ptr %4, align 8, !tbaa !16
  br label %31

30:                                               ; preds = %26
  store ptr @.str.77, ptr %4, align 8, !tbaa !16
  br label %31

31:                                               ; preds = %30, %29
  br label %32

32:                                               ; preds = %31, %25
  br label %33

33:                                               ; preds = %32, %21
  call void @llvm.lifetime.start.p0(i64 8, ptr %7) #14
  %34 = call ptr @sdsempty()
  %35 = load ptr, ptr %4, align 8, !tbaa !16
  %36 = load i32, ptr %2, align 4, !tbaa !19
  %37 = load ptr, ptr %3, align 8, !tbaa !16
  %38 = call ptr (ptr, ptr, ...) @sdscatprintf(ptr noundef %34, ptr noundef @.str.78, ptr noundef %35, i32 noundef %36, ptr noundef %37)
  store ptr %38, ptr %7, align 8, !tbaa !16
  %39 = load ptr, ptr %7, align 8, !tbaa !16
  call void @ldbLog(ptr noundef %39)
  call void @llvm.lifetime.end.p0(i64 8, ptr %7) #14
  call void @llvm.lifetime.end.p0(i64 4, ptr %6) #14
  call void @llvm.lifetime.end.p0(i64 4, ptr %5) #14
  call void @llvm.lifetime.end.p0(i64 8, ptr %4) #14
  call void @llvm.lifetime.end.p0(i64 8, ptr %3) #14
  ret void
}