; Function Attrs: nounwind uwtable
define dso_local void @ldbLogSourceLine(i32 noundef %0) local_unnamed_addr #0 {
  %2 = icmp slt i32 %0, 1
  %3 = load i32, ptr getelementptr inbounds nuw (i8, ptr @ldb, i64 320), align 8
  %.not.not.i = icmp sgt i32 %0, %3
  %or.cond.i = select i1 %2, i1 true, i1 %.not.not.i
  br i1 %or.cond.i, label %ldbGetSourceLine.exit, label %4

4:                                                ; preds = %1
  %5 = load ptr, ptr getelementptr inbounds nuw (i8, ptr @ldb, i64 312), align 8, !tbaa !58
  %6 = zext nneg i32 %0 to i64
  %7 = getelementptr ptr, ptr %5, i64 %6
  %8 = getelementptr i8, ptr %7, i64 -8
  %9 = load ptr, ptr %8, align 8, !tbaa !92
  br label %ldbGetSourceLine.exit

ldbGetSourceLine.exit:                            ; preds = %1, %4
  %.0.i = phi ptr [ %9, %4 ], [ @.str.72, %1 ]
  %10 = load i32, ptr getelementptr inbounds nuw (i8, ptr @ldb, i64 296), align 8, !tbaa !140
  %11 = icmp sgt i32 %10, 0
  br i1 %11, label %.lr.ph.preheader.i, label %.loopexit

.lr.ph.preheader.i:                               ; preds = %ldbGetSourceLine.exit
  %wide.trip.count.i = zext nneg i32 %10 to i64
  br label %.lr.ph.i

12:                                               ; preds = %.lr.ph.i
  %indvars.iv.next.i = add nuw nsw i64 %indvars.iv.i, 1
  %exitcond.not.i = icmp eq i64 %indvars.iv.next.i, %wide.trip.count.i
  br i1 %exitcond.not.i, label %.loopexit, label %.lr.ph.i, !llvm.loop !154

.lr.ph.i:                                         ; preds = %12, %.lr.ph.preheader.i
  %indvars.iv.i = phi i64 [ 0, %.lr.ph.preheader.i ], [ %indvars.iv.next.i, %12 ]
  %13 = getelementptr inbounds nuw [64 x i32], ptr getelementptr inbounds nuw (i8, ptr @ldb, i64 40), i64 0, i64 %indvars.iv.i
  %14 = load i32, ptr %13, align 4, !tbaa !91
  %15 = icmp eq i32 %14, %0
  br i1 %15, label %.loopexit, label %12

.loopexit:                                        ; preds = %.lr.ph.i, %12, %ldbGetSourceLine.exit
  %16 = phi ptr [ @.str.77, %ldbGetSourceLine.exit ], [ @.str.77, %12 ], [ @.str.76, %.lr.ph.i ]
  %17 = phi ptr [ @.str.75, %ldbGetSourceLine.exit ], [ @.str.75, %12 ], [ @.str.74, %.lr.ph.i ]
  %18 = load i32, ptr getelementptr inbounds nuw (i8, ptr @ldb, i64 324), align 4, !tbaa !24
  %19 = icmp eq i32 %18, %0
  %.0 = select i1 %19, ptr %17, ptr %16
  %20 = tail call ptr @sdsempty() #19
  %21 = tail call ptr (ptr, ptr, ...) @sdscatprintf(ptr noundef %20, ptr noundef nonnull @.str.78, ptr noundef nonnull %.0, i32 noundef %0, ptr noundef %.0.i) #19
  %22 = load ptr, ptr getelementptr inbounds nuw (i8, ptr @ldb, i64 16), align 8, !tbaa !26
  %23 = tail call ptr @listAddNodeTail(ptr noundef %22, ptr noundef %21) #19
  ret void
}